target datalayout = "e-m:e-p270:32:32-p271:32:32-p272:64:64-i64:64-i128:128-f80:128-n8:16:32:64-S128"
target triple = "x86_64-pc-linux-gnu"

%struct.lua_State = type { %struct.GCRef, i8, i8, i8, i8, %struct.MRef, %struct.GCRef, ptr, ptr, %struct.MRef, %struct.MRef, %struct.GCRef, %struct.GCRef, ptr, i32 }
%struct.MRef = type { i64 }
%struct.GCRef = type { i64 }
%union.TValue = type { i64 }
%struct.GCstr = type { %struct.GCRef, i8, i8, i8, i8, i32, i32, i32 }
%struct.GCtab = type { %struct.GCRef, i8, i8, i8, i8, %struct.MRef, %struct.GCRef, %struct.GCRef, %struct.MRef, i32, i32, %struct.MRef }
%struct.GChead = type { %struct.GCRef, i8, i8, i8, i8, %struct.GCRef, %struct.GCRef, %struct.GCRef }
%struct.global_State = type { ptr, ptr, %struct.GCState, %struct.GCstr, i8, i8, i8, i8, %struct.StrInternState, i32, %struct.GCRef, %struct.SBuf, %union.TValue, %union.TValue, %struct.Node, %union.TValue, %struct.GCupval, i32, i32, ptr, ptr, ptr, i32, i32, %struct.GCRef, %struct.MRef, %struct.MRef, %struct.PRNGState, [39 x %struct.GCRef] }
%struct.GCState = type { i64, i64, i8, i8, i8, i8, i32, %struct.GCRef, %struct.MRef, %struct.GCRef, %struct.GCRef, %struct.GCRef, %struct.GCRef, i64, i64, i32, i32, %struct.MRef }
%struct.StrInternState = type { ptr, i32, i32, i32, i8, i8, i8, i8, i64 }
%struct.SBuf = type { ptr, ptr, ptr, %struct.MRef }
%struct.Node = type { %union.TValue, %union.TValue, %struct.MRef }
%struct.GCupval = type { %struct.GCRef, i8, i8, i8, i8, %union.anon, %struct.MRef, i32 }
%union.anon = type { %struct.anon.1 }
%struct.anon.1 = type { %struct.GCRef, %struct.GCRef }
%struct.PRNGState = type { [4 x i64] }

@.str.4 = private unnamed_addr constant [24 x i8] c"store to dead GC object\00", align 1

; Function Attrs: alwaysinline nounwind uwtable
define internal void @checklivetv(ptr noundef %0, ptr noundef %1, ptr noundef %2) #1 {
  %4 = alloca ptr, align 8
  %5 = alloca ptr, align 8
  %6 = alloca ptr, align 8
  store ptr %0, ptr %4, align 8, !tbaa !4
  store ptr %1, ptr %5, align 8, !tbaa !17
  store ptr %2, ptr %6, align 8, !tbaa !25
  ret void
}

; Function Attrs: alwaysinline nounwind uwtable
define internal void @setgcVraw(ptr noundef %0, ptr noundef %1, i32 noundef %2) #1 {
  %4 = alloca ptr, align 8
  %5 = alloca ptr, align 8
  %6 = alloca i32, align 4
  store ptr %0, ptr %4, align 8, !tbaa !17
  store ptr %1, ptr %5, align 8, !tbaa !27
  store i32 %2, ptr %6, align 4, !tbaa !29
  %7 = load ptr, ptr %5, align 8, !tbaa !27
  %8 = ptrtoint ptr %7 to i64
  %9 = load i32, ptr %6, align 4, !tbaa !29
  %10 = zext i32 %9 to i64
  %11 = shl i64 %10, 47
  %12 = or i64 %8, %11
  %13 = load ptr, ptr %4, align 8, !tbaa !17
  %14 = getelementptr inbounds nuw %struct.GCRef, ptr %13, i32 0, i32 0
  store i64 %12, ptr %14, align 8, !tbaa !16
  ret void
}

; Function Attrs: alwaysinline nounwind uwtable
define internal void @setgcV(ptr noundef %0, ptr noundef %1, ptr noundef %2, i32 noundef %3) #1 {
  %5 = alloca ptr, align 8
  %6 = alloca ptr, align 8
  %7 = alloca ptr, align 8
  %8 = alloca i32, align 4
  store ptr %0, ptr %5, align 8, !tbaa !4
  store ptr %1, ptr %6, align 8, !tbaa !17
  store ptr %2, ptr %7, align 8, !tbaa !27
  store i32 %3, ptr %8, align 4, !tbaa !29
  %9 = load ptr, ptr %6, align 8, !tbaa !17
  %10 = load ptr, ptr %7, align 8, !tbaa !27
  %11 = load i32, ptr %8, align 4, !tbaa !29
  call void @setgcVraw(ptr noundef %9, ptr noundef %10, i32 noundef %11)
  %12 = load ptr, ptr %5, align 8, !tbaa !4
  %13 = load ptr, ptr %6, align 8, !tbaa !17
  call void @checklivetv(ptr noundef %12, ptr noundef %13, ptr noundef @.str.4)
  ret void
}

; Function Attrs: alwaysinline nounwind uwtable
define internal void @settabV(ptr noundef %0, ptr noundef %1, ptr noundef %2) #1 {
  %4 = alloca ptr, align 8
  %5 = alloca ptr, align 8
  %6 = alloca ptr, align 8
  store ptr %0, ptr %4, align 8, !tbaa !4
  store ptr %1, ptr %5, align 8, !tbaa !17
  store ptr %2, ptr %6, align 8, !tbaa !20
  %7 = load ptr, ptr %4, align 8, !tbaa !4
  %8 = load ptr, ptr %5, align 8, !tbaa !17
  %9 = load ptr, ptr %6, align 8, !tbaa !20
  call void @setgcV(ptr noundef %7, ptr noundef %8, ptr noundef %9, i32 noundef -12)
  ret void
}

; Function Attrs: alwaysinline nounwind uwtable
define internal void @lj_gc_barrierback(ptr noundef %0, ptr noundef %1) #1 {
  %3 = alloca ptr, align 8
  %4 = alloca ptr, align 8
  %5 = alloca ptr, align 8
  store ptr %0, ptr %3, align 8, !tbaa !73
  store ptr %1, ptr %4, align 8, !tbaa !20
  call void @llvm.lifetime.start.p0(i64 8, ptr %5) #11
  %6 = load ptr, ptr %4, align 8, !tbaa !20
  store ptr %6, ptr %5, align 8, !tbaa !27
  %7 = load ptr, ptr %5, align 8, !tbaa !27
  %8 = getelementptr inbounds nuw %struct.GChead, ptr %7, i32 0, i32 1
  %9 = load i8, ptr %8, align 8, !tbaa !16
  %10 = zext i8 %9 to i32
  %11 = and i32 %10, 251
  %12 = trunc i32 %11 to i8
  store i8 %12, ptr %8, align 8, !tbaa !16
  %13 = load ptr, ptr %3, align 8, !tbaa !73
  %14 = getelementptr inbounds nuw %struct.global_State, ptr %13, i32 0, i32 2
  %15 = getelementptr inbounds nuw %struct.GCState, ptr %14, i32 0, i32 10
  %16 = getelementptr inbounds nuw %struct.GCRef, ptr %15, i32 0, i32 0
  %17 = load i64, ptr %16, align 8, !tbaa !75
  %18 = load ptr, ptr %4, align 8, !tbaa !20
  %19 = getelementptr inbounds nuw %struct.GCtab, ptr %18, i32 0, i32 6
  %20 = getelementptr inbounds nuw %struct.GCRef, ptr %19, i32 0, i32 0
  store i64 %17, ptr %20, align 8, !tbaa !76
  %21 = load ptr, ptr %5, align 8, !tbaa !27
  %22 = ptrtoint ptr %21 to i64
  %23 = load ptr, ptr %3, align 8, !tbaa !73
  %24 = getelementptr inbounds nuw %struct.global_State, ptr %23, i32 0, i32 2
  %25 = getelementptr inbounds nuw %struct.GCState, ptr %24, i32 0, i32 10
  %26 = getelementptr inbounds nuw %struct.GCRef, ptr %25, i32 0, i32 0
  store i64 %22, ptr %26, align 8, !tbaa !75
  call void @llvm.lifetime.end.p0(i64 8, ptr %5) #11
  ret void
}

; Function Attrs: nounwind uwtable
define internal i32 @lj_ffh_setmetatable(ptr noundef %0) #3 {
  %2 = alloca ptr, align 8
  %3 = alloca ptr, align 8
  %4 = alloca ptr, align 8
  store ptr %0, ptr %2, align 8, !tbaa !4
  call void @llvm.lifetime.start.p0(i64 8, ptr %3) #11
  %5 = load ptr, ptr %2, align 8, !tbaa !4
  %6 = call ptr @lj_lib_checktab(ptr noundef %5, i32 noundef 1)
  store ptr %6, ptr %3, align 8, !tbaa !20
  call void @llvm.lifetime.start.p0(i64 8, ptr %4) #11
  %7 = load ptr, ptr %2, align 8, !tbaa !4
  %8 = call ptr @lj_lib_checktabornil(ptr noundef %7, i32 noundef 2)
  store ptr %8, ptr %4, align 8, !tbaa !20
  %9 = load ptr, ptr %2, align 8, !tbaa !4
  %10 = load ptr, ptr %2, align 8, !tbaa !4
  %11 = getelementptr inbounds nuw %struct.lua_State, ptr %10, i32 0, i32 7
  %12 = load ptr, ptr %11, align 8, !tbaa !32
  %13 = call ptr @lj_meta_lookup(ptr noundef %9, ptr noundef %12, i32 noundef 17)
  %14 = load i64, ptr %13, align 8, !tbaa !16
  %15 = icmp eq i64 %14, -1
  br i1 %15, label %18, label %16

16:                                               ; preds = %1
  %17 = load ptr, ptr %2, align 8, !tbaa !4
  call void @lj_err_caller(ptr noundef %17, i32 noundef 951) #10
  unreachable

18:                                               ; preds = %1
  %19 = load ptr, ptr %4, align 8, !tbaa !20
  %20 = ptrtoint ptr %19 to i64
  %21 = load ptr, ptr %3, align 8, !tbaa !20
  %22 = getelementptr inbounds nuw %struct.GCtab, ptr %21, i32 0, i32 7
  %23 = getelementptr inbounds nuw %struct.GCRef, ptr %22, i32 0, i32 0
  store i64 %20, ptr %23, align 8, !tbaa !22
  %24 = load ptr, ptr %4, align 8, !tbaa !20
  %25 = icmp ne ptr %24, null
  br i1 %25, label %26, label %48

26:                                               ; preds = %18
  %27 = load ptr, ptr %4, align 8, !tbaa !20
  %28 = getelementptr inbounds nuw %struct.GChead, ptr %27, i32 0, i32 1
  %29 = load i8, ptr %28, align 8, !tbaa !16
  %30 = zext i8 %29 to i32
  %31 = and i32 %30, 3
  %32 = icmp ne i32 %31, 0
  br i1 %32, label %33, label %47

33:                                               ; preds = %26
  %34 = load ptr, ptr %3, align 8, !tbaa !20
  %35 = getelementptr inbounds nuw %struct.GChead, ptr %34, i32 0, i32 1
  %36 = load i8, ptr %35, align 8, !tbaa !16
  %37 = zext i8 %36 to i32
  %38 = and i32 %37, 4
  %39 = icmp ne i32 %38, 0
  br i1 %39, label %40, label %47

40:                                               ; preds = %33
  %41 = load ptr, ptr %2, align 8, !tbaa !4
  %42 = getelementptr inbounds nuw %struct.lua_State, ptr %41, i32 0, i32 5
  %43 = getelementptr inbounds nuw %struct.MRef, ptr %42, i32 0, i32 0
  %44 = load i64, ptr %43, align 8, !tbaa !33
  %45 = inttoptr i64 %44 to ptr
  %46 = load ptr, ptr %3, align 8, !tbaa !20
  call void @lj_gc_barrierback(ptr noundef %45, ptr noundef %46)
  br label %47

47:                                               ; preds = %40, %33, %26
  br label %48

48:                                               ; preds = %47, %18
  %49 = load ptr, ptr %2, align 8, !tbaa !4
  %50 = load ptr, ptr %2, align 8, !tbaa !4
  %51 = getelementptr inbounds nuw %struct.lua_State, ptr %50, i32 0, i32 7
  %52 = load ptr, ptr %51, align 8, !tbaa !32
  %53 = getelementptr inbounds %union.TValue, ptr %52, i64 -1
  %54 = getelementptr inbounds %union.TValue, ptr %53, i64 -1
  %55 = load ptr, ptr %3, align 8, !tbaa !20
  call void @settabV(ptr noundef %49, ptr noundef %54, ptr noundef %55)
  call void @llvm.lifetime.end.p0(i64 8, ptr %4) #11
  call void @llvm.lifetime.end.p0(i64 8, ptr %3) #11
  ret i32 2
}