; Function Attrs: nounwind uwtable
define internal noundef i32 @lj_ffh_setmetatable(ptr noundef %0) #2 {
  %2 = tail call ptr @lj_lib_checktab(ptr noundef %0, i32 noundef 1) #11
  %3 = tail call ptr @lj_lib_checktabornil(ptr noundef %0, i32 noundef 2) #11
  %4 = getelementptr inbounds nuw i8, ptr %0, i64 32
  %5 = load ptr, ptr %4, align 8, !tbaa !19
  %6 = tail call ptr @lj_meta_lookup(ptr noundef %0, ptr noundef %5, i32 noundef 17) #11
  %7 = load i64, ptr %6, align 8, !tbaa !14
  %8 = icmp eq i64 %7, -1
  br i1 %8, label %10, label %9

9:                                                ; preds = %1
  tail call void @lj_err_caller(ptr noundef nonnull %0, i32 noundef 951) #10
  unreachable

10:                                               ; preds = %1
  %11 = ptrtoint ptr %3 to i64
  %12 = getelementptr inbounds nuw i8, ptr %2, i64 32
  store i64 %11, ptr %12, align 8, !tbaa !16
  %.not = icmp eq ptr %3, null
  br i1 %.not, label %30, label %13

13:                                               ; preds = %10
  %14 = getelementptr inbounds nuw i8, ptr %3, i64 8
  %15 = load i8, ptr %14, align 8, !tbaa !14
  %16 = and i8 %15, 3
  %.not15 = icmp eq i8 %16, 0
  br i1 %.not15, label %30, label %17

17:                                               ; preds = %13
  %18 = getelementptr inbounds nuw i8, ptr %2, i64 8
  %19 = load i8, ptr %18, align 8, !tbaa !14
  %20 = and i8 %19, 4
  %.not16 = icmp eq i8 %20, 0
  br i1 %.not16, label %30, label %21

21:                                               ; preds = %17
  %22 = getelementptr inbounds nuw i8, ptr %0, i64 16
  %23 = load i64, ptr %22, align 8, !tbaa !20
  %24 = inttoptr i64 %23 to ptr
  %25 = and i8 %19, -5
  store i8 %25, ptr %18, align 8, !tbaa !14
  %26 = getelementptr inbounds nuw i8, ptr %24, i64 64
  %27 = load i64, ptr %26, align 8, !tbaa !21
  %28 = getelementptr inbounds nuw i8, ptr %2, i64 24
  store i64 %27, ptr %28, align 8, !tbaa !32
  %29 = ptrtoint ptr %2 to i64
  store i64 %29, ptr %26, align 8, !tbaa !21
  br label %30

30:                                               ; preds = %13, %17, %21, %10
  %31 = load ptr, ptr %4, align 8, !tbaa !19
  %32 = getelementptr inbounds i8, ptr %31, i64 -16
  %33 = ptrtoint ptr %2 to i64
  %34 = or i64 %33, -1688849860263936
  store i64 %34, ptr %32, align 8, !tbaa !14
  ret i32 2
}